0000000000001119 <stuff>:
    1119:	55                   	push   %rbp
    111a:	48 89 e5             	mov    %rsp,%rbp
    111d:	48 83 ec 40          	sub    $0x40,%rsp
    1121:	48 89 bd 48 ff ff ff 	mov    %rdi,-0xb8(%rbp)
    1128:	48 8b 85 48 ff ff ff 	mov    -0xb8(%rbp),%rax
    112f:	48 89 45 f0          	mov    %rax,-0x10(%rbp)
    1133:	c6 45 a0 9a          	movb   $0x9a,-0x60(%rbp)
    1137:	c6 45 a1 3b          	movb   $0x3b,-0x5f(%rbp)
    113b:	c6 45 a2 b5          	movb   $0xb5,-0x5e(%rbp)
    113f:	c6 45 a3 22          	movb   $0x22,-0x5d(%rbp)
    1143:	c6 45 a4 35          	movb   $0x35,-0x5c(%rbp)
    1147:	c6 45 a5 29          	movb   $0x29,-0x5b(%rbp)
    114b:	c6 45 a6 62          	movb   $0x62,-0x5a(%rbp)
    114f:	c6 45 a7 5f          	movb   $0x5f,-0x59(%rbp)
    1153:	c6 45 a8 66          	movb   $0x66,-0x58(%rbp)
    1157:	c6 45 a9 12          	movb   $0x12,-0x57(%rbp)
    115b:	c6 45 aa 15          	movb   $0x15,-0x56(%rbp)
    115f:	c6 45 ab 4a          	movb   $0x4a,-0x55(%rbp)
    1163:	c6 45 ac 4d          	movb   $0x4d,-0x54(%rbp)
    1167:	c6 45 ad 47          	movb   $0x47,-0x53(%rbp)
    116b:	c6 45 ae c2          	movb   $0xc2,-0x52(%rbp)
    116f:	c6 45 af c4          	movb   $0xc4,-0x51(%rbp)
    1173:	c6 45 b0 09          	movb   $0x9,-0x50(%rbp)
    1177:	c6 45 b1 63          	movb   $0x63,-0x4f(%rbp)
    117b:	c6 45 b2 67          	movb   $0x67,-0x4e(%rbp)
    117f:	c6 45 b3 35          	movb   $0x35,-0x4d(%rbp)
    1183:	c6 45 b4 3a          	movb   $0x3a,-0x4c(%rbp)
    1187:	c6 45 b5 6d          	movb   $0x6d,-0x4b(%rbp)
    118b:	c6 45 b6 1e          	movb   $0x1e,-0x4a(%rbp)
    118f:	c6 45 b7 1a          	movb   $0x1a,-0x49(%rbp)
    1193:	c6 45 b8 6d          	movb   $0x6d,-0x48(%rbp)
    1197:	c6 45 b9 b9          	movb   $0xb9,-0x47(%rbp)
    119b:	c6 45 ba 41          	movb   $0x41,-0x46(%rbp)
    119f:	c6 45 bb ad          	movb   $0xad,-0x45(%rbp)
    11a3:	c6 45 bc 4f          	movb   $0x4f,-0x44(%rbp)
    11a7:	c6 45 bd 34          	movb   $0x34,-0x43(%rbp)
    11ab:	c6 45 be 2b          	movb   $0x2b,-0x42(%rbp)
    11af:	c6 45 bf 01          	movb   $0x1,-0x41(%rbp)
    11b3:	c6 45 c0 05          	movb   $0x5,-0x40(%rbp)
    11b7:	c6 45 c1 6d          	movb   $0x6d,-0x3f(%rbp)
    11bb:	c6 45 c2 29          	movb   $0x29,-0x3e(%rbp)
    11bf:	c6 45 c3 65          	movb   $0x65,-0x3d(%rbp)
    11c3:	c6 45 c4 96          	movb   $0x96,-0x3c(%rbp)
    11c7:	c6 45 c5 04          	movb   $0x4,-0x3b(%rbp)
    11cb:	c6 45 c6 75          	movb   $0x75,-0x3a(%rbp)
    11cf:	c6 45 c7 03          	movb   $0x3,-0x39(%rbp)
    11d3:	c6 45 c8 79          	movb   $0x79,-0x38(%rbp)
    11d7:	c6 45 c9 4c          	movb   $0x4c,-0x37(%rbp)
    11db:	c6 45 ca 40          	movb   $0x40,-0x36(%rbp)
    11df:	c6 45 cb 25          	movb   $0x25,-0x35(%rbp)
    11e3:	c6 45 cc 29          	movb   $0x29,-0x34(%rbp)
    11e7:	c6 45 cd 54          	movb   $0x54,-0x33(%rbp)
    11eb:	c6 45 ce 5b          	movb   $0x5b,-0x32(%rbp)
    11ef:	c6 45 cf 53          	movb   $0x53,-0x31(%rbp)
    11f3:	c6 45 d0 70          	movb   $0x70,-0x30(%rbp)
    11f7:	c6 45 d1 b1          	movb   $0xb1,-0x2f(%rbp)
    11fb:	c6 45 d2 43          	movb   $0x43,-0x2e(%rbp)
    11ff:	c6 45 d3 07          	movb   $0x7,-0x2d(%rbp)
    1203:	c6 45 d4 23          	movb   $0x23,-0x2c(%rbp)
    1207:	c6 45 d5 1d          	movb   $0x1d,-0x2b(%rbp)
    120b:	c6 45 d6 82          	movb   $0x82,-0x2a(%rbp)
    120f:	c6 45 d7 52          	movb   $0x52,-0x29(%rbp)
    1213:	c6 45 d8 a4          	movb   $0xa4,-0x28(%rbp)
    1217:	c6 45 d9 a4          	movb   $0xa4,-0x27(%rbp)
    121b:	c6 45 da 9c          	movb   $0x9c,-0x26(%rbp)
    121f:	c6 45 db 12          	movb   $0x12,-0x25(%rbp)
    1223:	c6 45 dc 07          	movb   $0x7,-0x24(%rbp)
    1227:	c6 45 dd c5          	movb   $0xc5,-0x23(%rbp)
    122b:	c6 45 de 3f          	movb   $0x3f,-0x22(%rbp)
    122f:	c6 45 df 54          	movb   $0x54,-0x21(%rbp)
    1233:	c6 45 e0 48          	movb   $0x48,-0x20(%rbp)
    1237:	c6 45 e1 79          	movb   $0x79,-0x1f(%rbp)
    123b:	c6 45 e2 af          	movb   $0xaf,-0x1e(%rbp)
    123f:	c6 45 e3 07          	movb   $0x7,-0x1d(%rbp)
    1243:	c6 85 50 ff ff ff ef 	movb   $0xef,-0xb0(%rbp)
    124a:	c6 85 51 ff ff ff 4f 	movb   $0x4f,-0xaf(%rbp)
    1251:	c6 85 52 ff ff ff d3 	movb   $0xd3,-0xae(%rbp)
    1258:	c6 85 53 ff ff ff 4e 	movb   $0x4e,-0xad(%rbp)
    125f:	c6 85 54 ff ff ff 54 	movb   $0x54,-0xac(%rbp)
    1266:	c6 85 55 ff ff ff 4e 	movb   $0x4e,-0xab(%rbp)
    126d:	c6 85 56 ff ff ff 19 	movb   $0x19,-0xaa(%rbp)
    1274:	c6 85 57 ff ff ff 0a 	movb   $0xa,-0xa9(%rbp)
    127b:	c6 85 58 ff ff ff 0b 	movb   $0xb,-0xa8(%rbp)
    1282:	c6 85 59 ff ff ff 44 	movb   $0x44,-0xa7(%rbp)
    1289:	c6 85 5a ff ff ff 7d 	movb   $0x7d,-0xa6(%rbp)
    1290:	c6 85 5b ff ff ff 10 	movb   $0x10,-0xa5(%rbp)
    1297:	c6 85 5c ff ff ff 0e 	movb   $0xe,-0xa4(%rbp)
    129e:	c6 85 5d ff ff ff 05 	movb   $0x5,-0xa3(%rbp)
    12a5:	c6 85 5e ff ff ff f2 	movb   $0xf2,-0xa2(%rbp)
    12ac:	c6 85 5f ff ff ff a5 	movb   $0xa5,-0xa1(%rbp)
    12b3:	c6 85 60 ff ff ff 4e 	movb   $0x4e,-0xa0(%rbp)
    12ba:	c6 85 61 ff ff ff 0f 	movb   $0xf,-0x9f(%rbp)
    12c1:	c6 85 62 ff ff ff 1d 	movb   $0x1d,-0x9e(%rbp)
    12c8:	c6 85 63 ff ff ff 7a 	movb   $0x7a,-0x9d(%rbp)
    12cf:	c6 85 64 ff ff ff 53 	movb   $0x53,-0x9c(%rbp)
    12d6:	c6 85 65 ff ff ff 2f 	movb   $0x2f,-0x9b(%rbp)
    12dd:	c6 85 66 ff ff ff 71 	movb   $0x71,-0x9a(%rbp)
    12e4:	c6 85 67 ff ff ff 7e 	movb   $0x7e,-0x99(%rbp)
    12eb:	c6 85 68 ff ff ff 25 	movb   $0x25,-0x98(%rbp)
    12f2:	c6 85 69 ff ff ff eb 	movb   $0xeb,-0x97(%rbp)
    12f9:	c6 85 6a ff ff ff 36 	movb   $0x36,-0x96(%rbp)
    1300:	c6 85 6b ff ff ff ce 	movb   $0xce,-0x95(%rbp)
    1307:	c6 85 6c ff ff ff 35 	movb   $0x35,-0x94(%rbp)
    130e:	c6 85 6d ff ff ff 5b 	movb   $0x5b,-0x93(%rbp)
    1315:	c6 85 6e ff ff ff 5d 	movb   $0x5d,-0x92(%rbp)
    131c:	c6 85 6f ff ff ff 4d 	movb   $0x4d,-0x91(%rbp)
    1323:	c6 85 70 ff ff ff 37 	movb   $0x37,-0x90(%rbp)
    132a:	c6 85 71 ff ff ff 2b 	movb   $0x2b,-0x8f(%rbp)
    1331:	c6 85 72 ff ff ff 50 	movb   $0x50,-0x8e(%rbp)
    1338:	c6 85 73 ff ff ff 00 	movb   $0x0,-0x8d(%rbp)
    133f:	c6 85 74 ff ff ff d1 	movb   $0xd1,-0x8c(%rbp)
    1346:	c6 85 75 ff ff ff 68 	movb   $0x68,-0x8b(%rbp)
    134d:	c6 85 76 ff ff ff 47 	movb   $0x47,-0x8a(%rbp)
    1354:	c6 85 77 ff ff ff 4f 	movb   $0x4f,-0x89(%rbp)
    135b:	c6 85 78 ff ff ff 14 	movb   $0x14,-0x88(%rbp)
    1362:	c6 85 79 ff ff ff 75 	movb   $0x75,-0x87(%rbp)
    1369:	c6 85 7a ff ff ff 39 	movb   $0x39,-0x86(%rbp)
    1370:	c6 85 7b ff ff ff 7f 	movb   $0x7f,-0x85(%rbp)
    1377:	c6 85 7c ff ff ff 50 	movb   $0x50,-0x84(%rbp)
    137e:	c6 85 7d ff ff ff 6d 	movb   $0x6d,-0x83(%rbp)
    1385:	c6 85 7e ff ff ff 33 	movb   $0x33,-0x82(%rbp)
    138c:	c6 85 7f ff ff ff 0a 	movb   $0xa,-0x81(%rbp)
    1393:	c6 45 80 1e          	movb   $0x1e,-0x80(%rbp)
    1397:	c6 45 81 fc          	movb   $0xfc,-0x7f(%rbp)
    139b:	c6 45 82 35          	movb   $0x35,-0x7e(%rbp)
    139f:	c6 45 83 4a          	movb   $0x4a,-0x7d(%rbp)
    13a3:	c6 45 84 77          	movb   $0x77,-0x7c(%rbp)
    13a7:	c6 45 85 76          	movb   $0x76,-0x7b(%rbp)
    13ab:	c6 45 86 f5          	movb   $0xf5,-0x7a(%rbp)
    13af:	c6 45 87 1f          	movb   $0x1f,-0x79(%rbp)
    13b3:	c6 45 88 dd          	movb   $0xdd,-0x78(%rbp)
    13b7:	c6 45 89 90          	movb   $0x90,-0x77(%rbp)
    13bb:	c6 45 8a eb          	movb   $0xeb,-0x76(%rbp)
    13bf:	c6 45 8b 5d          	movb   $0x5d,-0x75(%rbp)
    13c3:	c6 45 8c 43          	movb   $0x43,-0x74(%rbp)
    13c7:	c6 45 8d 90          	movb   $0x90,-0x73(%rbp)
    13cb:	c6 45 8e 0c          	movb   $0xc,-0x72(%rbp)
    13cf:	c6 45 8f 19          	movb   $0x19,-0x71(%rbp)
    13d3:	c6 45 90 09          	movb   $0x9,-0x70(%rbp)
    13d7:	c6 45 91 44          	movb   $0x44,-0x6f(%rbp)
    13db:	c6 45 92 92          	movb   $0x92,-0x6e(%rbp)
    13df:	c6 45 93 7a          	movb   $0x7a,-0x6d(%rbp)
    13e3:	c7 45 fc 00 00 00 00 	movl   $0x0,-0x4(%rbp)
    13ea:	eb 38                	jmp    1424 <stuff+0x30b>
    13ec:	8b 45 fc             	mov    -0x4(%rbp),%eax
    13ef:	48 98                	cltq   
    13f1:	0f b6 94 05 50 ff ff 	movzbl -0xb0(%rbp,%rax,1),%edx
    13f8:	ff 
    13f9:	8b 45 fc             	mov    -0x4(%rbp),%eax
    13fc:	48 63 c8             	movslq %eax,%rcx
    13ff:	48 8b 45 f0          	mov    -0x10(%rbp),%rax
    1403:	48 01 c8             	add    %rcx,%rax
    1406:	0f b6 08             	movzbl (%rax),%ecx
    1409:	8b 45 fc             	mov    -0x4(%rbp),%eax
    140c:	48 98                	cltq   
    140e:	0f b6 44 05 a0       	movzbl -0x60(%rbp,%rax,1),%eax
    1413:	31 c8                	xor    %ecx,%eax
    1415:	38 c2                	cmp    %al,%dl
    1417:	74 07                	je     1420 <stuff+0x307>
    1419:	b8 01 00 00 00       	mov    $0x1,%eax
    141e:	eb 11                	jmp    1431 <stuff+0x318>
    1420:	83 45 fc 01          	addl   $0x1,-0x4(%rbp)
    1424:	8b 45 fc             	mov    -0x4(%rbp),%eax
    1427:	83 f8 43             	cmp    $0x43,%eax
    142a:	76 c0                	jbe    13ec <stuff+0x2d3>
    142c:	b8 00 00 00 00       	mov    $0x0,%eax
    1431:	c9                   	leaveq 
    1432:	c3                   	retq   
